target datalayout = "e-m:e-p270:32:32-p271:32:32-p272:64:64-i64:64-i128:128-f80:128-n8:16:32:64-S128"
target triple = "x86_64-pc-linux-gnu"

%struct.SurfaceDataRasInfo = type { %struct.SurfaceDataBounds, ptr, i32, i32, i32, i32, ptr, ptr, ptr, ptr, ptr, ptr, i32, %union.anon.0 }
%struct.SurfaceDataBounds = type { i32, i32, i32, i32 }
%union.anon.0 = type { ptr, [56 x i8] }

; Function Attrs: nounwind uwtable
define hidden void @IntArgbBmToIntBgrXparOver(ptr noundef %0, ptr noundef %1, i32 noundef %2, i32 noundef %3, ptr noundef %4, ptr noundef %5, ptr noundef %6, ptr noundef %7) #1 {
  %9 = alloca ptr, align 8
  %10 = alloca ptr, align 8
  %11 = alloca i32, align 4
  %12 = alloca i32, align 4
  %13 = alloca ptr, align 8
  %14 = alloca ptr, align 8
  %15 = alloca ptr, align 8
  %16 = alloca ptr, align 8
  %17 = alloca ptr, align 8
  %18 = alloca ptr, align 8
  %19 = alloca i32, align 4
  %20 = alloca i32, align 4
  %21 = alloca i32, align 4
  %22 = alloca i32, align 4
  %23 = alloca i32, align 4
  store ptr %0, ptr %9, align 8
  store ptr %1, ptr %10, align 8
  store i32 %2, ptr %11, align 4
  store i32 %3, ptr %12, align 4
  store ptr %4, ptr %13, align 8
  store ptr %5, ptr %14, align 8
  store ptr %6, ptr %15, align 8
  store ptr %7, ptr %16, align 8
  br label %24

24:                                               ; preds = %8
  %25 = load ptr, ptr %9, align 8
  store ptr %25, ptr %17, align 8
  %26 = load ptr, ptr %10, align 8
  store ptr %26, ptr %18, align 8
  %27 = load ptr, ptr %13, align 8
  %28 = getelementptr inbounds %struct.SurfaceDataRasInfo, ptr %27, i32 0, i32 4
  %29 = load i32, ptr %28, align 8
  store i32 %29, ptr %19, align 4
  %30 = load ptr, ptr %14, align 8
  %31 = getelementptr inbounds %struct.SurfaceDataRasInfo, ptr %30, i32 0, i32 4
  %32 = load i32, ptr %31, align 8
  store i32 %32, ptr %20, align 4
  %33 = load i32, ptr %11, align 4
  %34 = mul i32 %33, 4
  %35 = load i32, ptr %19, align 4
  %36 = sub i32 %35, %34
  store i32 %36, ptr %19, align 4
  %37 = load i32, ptr %11, align 4
  %38 = mul i32 %37, 4
  %39 = load i32, ptr %20, align 4
  %40 = sub i32 %39, %38
  store i32 %40, ptr %20, align 4
  br label %41

41:                                               ; preds = %91, %24
  %42 = load i32, ptr %11, align 4
  store i32 %42, ptr %21, align 4
  br label %43

43:                                               ; preds = %74, %41
  br label %44

44:                                               ; preds = %43
  %45 = load ptr, ptr %17, align 8
  %46 = getelementptr inbounds i32, ptr %45, i64 0
  %47 = load i32, ptr %46, align 4
  store i32 %47, ptr %22, align 4
  %48 = load i32, ptr %22, align 4
  %49 = ashr i32 %48, 24
  %50 = icmp eq i32 %49, 0
  br i1 %50, label %64, label %51

51:                                               ; preds = %44
  %52 = load i32, ptr %22, align 4
  store i32 %52, ptr %23, align 4
  %53 = load i32, ptr %23, align 4
  %54 = shl i32 %53, 16
  %55 = load i32, ptr %23, align 4
  %56 = and i32 %55, 65280
  %57 = or i32 %54, %56
  %58 = load i32, ptr %23, align 4
  %59 = ashr i32 %58, 16
  %60 = and i32 %59, 255
  %61 = or i32 %57, %60
  %62 = load ptr, ptr %18, align 8
  %63 = getelementptr inbounds i32, ptr %62, i64 0
  store i32 %61, ptr %63, align 4
  br label %64

64:                                               ; preds = %51, %44
  br label %65

65:                                               ; preds = %64
  %66 = load ptr, ptr %17, align 8
  %67 = ptrtoint ptr %66 to i64
  %68 = add nsw i64 %67, 4
  %69 = inttoptr i64 %68 to ptr
  store ptr %69, ptr %17, align 8
  %70 = load ptr, ptr %18, align 8
  %71 = ptrtoint ptr %70 to i64
  %72 = add nsw i64 %71, 4
  %73 = inttoptr i64 %72 to ptr
  store ptr %73, ptr %18, align 8
  br label %74

74:                                               ; preds = %65
  %75 = load i32, ptr %21, align 4
  %76 = add i32 %75, -1
  store i32 %76, ptr %21, align 4
  %77 = icmp ugt i32 %76, 0
  br i1 %77, label %43, label %78, !llvm.loop !31

78:                                               ; preds = %74
  %79 = load ptr, ptr %17, align 8
  %80 = ptrtoint ptr %79 to i64
  %81 = load i32, ptr %19, align 4
  %82 = sext i32 %81 to i64
  %83 = add nsw i64 %80, %82
  %84 = inttoptr i64 %83 to ptr
  store ptr %84, ptr %17, align 8
  %85 = load ptr, ptr %18, align 8
  %86 = ptrtoint ptr %85 to i64
  %87 = load i32, ptr %20, align 4
  %88 = sext i32 %87 to i64
  %89 = add nsw i64 %86, %88
  %90 = inttoptr i64 %89 to ptr
  store ptr %90, ptr %18, align 8
  br label %91

91:                                               ; preds = %78
  %92 = load i32, ptr %12, align 4
  %93 = add i32 %92, -1
  store i32 %93, ptr %12, align 4
  %94 = icmp ugt i32 %93, 0
  br i1 %94, label %41, label %95, !llvm.loop !32

95:                                               ; preds = %91
  br label %96

96:                                               ; preds = %95
  ret void
}