; Function Attrs: nofree norecurse nosync nounwind memory(readwrite, inaccessiblemem: none) uwtable
define hidden void @IntArgbBmToIntBgrXparOver(ptr noundef %0, ptr noundef %1, i32 noundef %2, i32 noundef %3, ptr nocapture noundef readonly %4, ptr nocapture noundef readonly %5, ptr nocapture readnone %6, ptr nocapture readnone %7) #1 {
  %9 = getelementptr inbounds i8, ptr %4, i64 32
  %10 = load i32, ptr %9, align 8
  %11 = getelementptr inbounds i8, ptr %5, i64 32
  %12 = load i32, ptr %11, align 8
  %13 = shl i32 %2, 2
  %14 = sub i32 %10, %13
  %15 = sub i32 %12, %13
  %16 = sext i32 %14 to i64
  %17 = sext i32 %15 to i64
  br label %18

18:                                               ; preds = %37, %8
  %.025 = phi ptr [ %1, %8 ], [ %41, %37 ]
  %.023 = phi ptr [ %0, %8 ], [ %39, %37 ]
  %.0 = phi i32 [ %3, %8 ], [ %42, %37 ]
  br label %19

19:                                               ; preds = %29, %18
  %.126 = phi ptr [ %.025, %18 ], [ %35, %29 ]
  %.024 = phi i32 [ %2, %18 ], [ %36, %29 ]
  %.1 = phi ptr [ %.023, %18 ], [ %32, %29 ]
  %20 = load i32, ptr %.1, align 4
  %21 = icmp ult i32 %20, 16777216
  br i1 %21, label %29, label %22

22:                                               ; preds = %19
  %23 = shl i32 %20, 16
  %24 = and i32 %20, 65280
  %25 = or disjoint i32 %23, %24
  %26 = lshr i32 %20, 16
  %27 = and i32 %26, 255
  %28 = or disjoint i32 %25, %27
  store i32 %28, ptr %.126, align 4
  br label %29

29:                                               ; preds = %19, %22
  %30 = ptrtoint ptr %.1 to i64
  %31 = add nsw i64 %30, 4
  %32 = inttoptr i64 %31 to ptr
  %33 = ptrtoint ptr %.126 to i64
  %34 = add nsw i64 %33, 4
  %35 = inttoptr i64 %34 to ptr
  %36 = add i32 %.024, -1
  %.not = icmp eq i32 %36, 0
  br i1 %.not, label %37, label %19, !llvm.loop !28

37:                                               ; preds = %29
  %38 = add nsw i64 %31, %16
  %39 = inttoptr i64 %38 to ptr
  %40 = add nsw i64 %34, %17
  %41 = inttoptr i64 %40 to ptr
  %42 = add i32 %.0, -1
  %.not29 = icmp eq i32 %42, 0
  br i1 %.not29, label %43, label %18, !llvm.loop !29

43:                                               ; preds = %37
  ret void
}